(dp0
S'cookies'
p1
(dp2
S'wxloadtime'
p3
S'1539156056'
p4
sS'webwx_data_ticket'
p5
S'gScEN2DLAkDWlrK432KiubtK'
p6
sS'wxuin'
p7
S'1425297161'
p8
sS'login_frequency'
p9
S'2'
p10
sS'MM_WX_NOTIFY_STATE'
p11
S'1'
p12
sS'MM_WX_SOUND_STATE'
p13
g12
sS'webwx_auth_ticket'
p14
S'CIsBEMaouuMHGoABWJVepcEO2WmDu7mk7mX5WpLdZy7MnUhisVd4Pmuw6rKJlrJKu7+/md3LZNx/fjlF5img+Y1T6usztqxuVQB/a3a0j48LUlzdI1U7D4CFM69ijKOl29OFcnMBkzfu2/rUNOx/95px5kZ1QJjWY5/+yjg+iVE4l5sLErx31PuvP8g='
p15
sS'last_wxuin'
p16
S'1425297161'
p17
sS'webwxuvid'
p18
S'a0eef73ddb661c12fa955fe4d2bc1c9c423d213b92ea1878ec99509eddb8b2c67e5cff61aafbed8d0cf2af277113139a'
p19
sS'wxpluginkey'
p20
S'1539005802'
p21
sS'wxsid'
p22
S'OUkD88bQNAY9fxko'
p23
sS'mm_lang'
p24
S'zh_CN'
p25
ssS'version'
p26
S'1.3.10'
p27
sS'storage'
p28
(dp29
S'userName'
p30
V@567c39184bdbec5c87418dc3006f94f44e60f5b60b43068c430ad74786aeff1f
p31
sS'lastInputUserName'
p32
NsS'memberList'
p33
ccopy_reg
_reconstructor
p34
(citchat.storage.templates
ContactList
p35
c__builtin__
list
p36
(lp37
g34
(citchat.storage.templates
User
p38
c__builtin__
dict
p39
(dp40
S'UserName'
p41
V@567c39184bdbec5c87418dc3006f94f44e60f5b60b43068c430ad74786aeff1f
p42
sS'City'
p43
V\u9759\u5b89
p44
sS'DisplayName'
p45
S''
p46
sS'UniFriend'
p47
I0
sS'OwnerUin'
p48
I0
sS'MemberList'
p49
g34
(g35
g36
(lp50
tp51
Rp52
I1
bsS'PYQuanPin'
p53
VToshibaCameraoutput
p54
sS'RemarkPYInitial'
p55
V
p56
sS'Uin'
p57
I1425297161
sS'AppAccountFlag'
p58
I0
sS'VerifyFlag'
p59
I0
sS'Province'
p60
V\u4e0a\u6d77
p61
sS'KeyWord'
p62
g46
sS'RemarkName'
p63
g56
sS'PYInitial'
p64
VTOSHIBACAMERAOUTPUT
p65
sS'ChatRoomId'
p66
I0
sVIsOwner
p67
I0
sS'HideInputBarFlag'
p68
I0
sVHeadImgFlag
p69
I1
sS'EncryChatRoomId'
p70
g46
sS'AttrStatus'
p71
I33659067
sS'SnsFlag'
p72
I49
sS'MemberCount'
p73
I0
sVWebWxPluginSwitch
p74
I0
sS'Alias'
p75
g46
sS'Signature'
p76
V\u795e\u5947\u7684\u5927\u81ea\u7136
p77
sS'ContactFlag'
p78
I1
sS'NickName'
p79
VToshiba_Camera_output
p80
sS'RemarkPYQuanPin'
p81
g56
sS'HeadImgUrl'
p82
V/cgi-bin/mmwebwx-bin/webwxgeticon?seq=678330183&username=@567c39184bdbec5c87418dc3006f94f44e60f5b60b43068c430ad74786aeff1f&skey=@crypt_5fc16cfa_c8941a384e52ba9d6c9cc7020b0990ed
p83
sS'Sex'
p84
I1
sS'StarFriend'
p85
I0
sS'Statues'
p86
I0
stp87
Rp88
I1
bag34
(g38
g39
(dp89
VUserName
p90
V@684ca521bfb99e0966517683de90ef50a3c36c16dfe3a3cde94687e98bab7290
p91
sVCity
p92
VChesapeake
p93
sVSnsFlag
p94
I49
sVDisplayName
p95
g56
sVUniFriend
p96
I0
sVMemberCount
p97
I0
sVOwnerUin
p98
I0
sVMemberList
p99
g52
sVAlias
p100
g56
sVPYQuanPin
p101
Vjason
p102
sVSignature
p103
g56
sVRemarkPYInitial
p104
VBOSS
p105
sVContactFlag
p106
I3
sVUin
p107
I0
sVNickName
p108
Vjason_
p109
sVAppAccountFlag
p110
I0
sVVerifyFlag
p111
I0
sVRemarkPYQuanPin
p112
VBoss
p113
sVHeadImgUrl
p114
V/cgi-bin/mmwebwx-bin/webwxgeticon?seq=678330127&username=@684ca521bfb99e0966517683de90ef50a3c36c16dfe3a3cde94687e98bab7290&skey=@crypt_5fc16cfa_c8941a384e52ba9d6c9cc7020b0990ed
p115
sVKeyWord
p116
g56
sVProvince
p117
VVirginia
p118
sVPYInitial
p119
VJASON
p120
sVRemarkName
p121
VBoss
p122
sVIsOwner
p123
I0
sVSex
p124
I1
sVStarFriend
p125
I0
sVHideInputBarFlag
p126
I0
sVChatRoomId
p127
I0
sVEncryChatRoomId
p128
g56
sVAttrStatus
p129
I67471461
sVStatues
p130
I0
stp131
Rp132
I1
bag34
(g38
g39
(dp133
VUserName
p134
V@cd917fea3a3667702ea0de37029b22dc
p135
sVCity
p136
V\u5362\u6e7e
p137
sVSnsFlag
p138
I49
sVDisplayName
p139
g56
sVUniFriend
p140
I0
sVMemberCount
p141
I0
sVOwnerUin
p142
I0
sVMemberList
p143
g52
sVAlias
p144
g56
sVPYQuanPin
p145
Vwei
p146
sVSignature
p147
g56
sVRemarkPYInitial
p148
g56
sVContactFlag
p149
I3
sVUin
p150
I0
sVNickName
p151
V\u709c
p152
sVAppAccountFlag
p153
I0
sVVerifyFlag
p154
I0
sVRemarkPYQuanPin
p155
g56
sVHeadImgUrl
p156
V/cgi-bin/mmwebwx-bin/webwxgeticon?seq=678323187&username=@cd917fea3a3667702ea0de37029b22dc&skey=@crypt_5fc16cfa_c8941a384e52ba9d6c9cc7020b0990ed
p157
sVKeyWord
p158
Vdav
p159
sVProvince
p160
V\u4e0a\u6d77
p161
sVPYInitial
p162
VW
p163
sVRemarkName
p164
g56
sVIsOwner
p165
I0
sVSex
p166
I1
sVStarFriend
p167
I0
sVHideInputBarFlag
p168
I0
sVChatRoomId
p169
I0
sVEncryChatRoomId
p170
g56
sVAttrStatus
p171
I231479
sVStatues
p172
I0
stp173
Rp174
I1
bag34
(g38
g39
(dp175
VUserName
p176
V@6ead00b18dc0d01ae203418f8b0761b1
p177
sVCity
p178
g56
sVSnsFlag
p179
I49
sVDisplayName
p180
g56
sVUniFriend
p181
I0
sVMemberCount
p182
I0
sVOwnerUin
p183
I0
sVMemberList
p184
g52
sVAlias
p185
g56
sVPYQuanPin
p186
Vwangyundi
p187
sVSignature
p188
V\u4f4e\u5934\u8981\u6709\u52c7\u6c14\uff0c\u62ac\u5934\u8981\u6709\u5e95\u6c14\uff01
p189
sVRemarkPYInitial
p190
g56
sVContactFlag
p191
I3
sVUin
p192
I0
sVNickName
p193
V\u738b\u4e91\u5a23
p194
sVAppAccountFlag
p195
I0
sVVerifyFlag
p196
I0
sVRemarkPYQuanPin
p197
g56
sVHeadImgUrl
p198
V/cgi-bin/mmwebwx-bin/webwxgeticon?seq=678329253&username=@6ead00b18dc0d01ae203418f8b0761b1&skey=@crypt_5fc16cfa_c8941a384e52ba9d6c9cc7020b0990ed
p199
sVKeyWord
p200
Vwan
p201
sVProvince
p202
V\u5317\u4eac
p203
sVPYInitial
p204
VWYD
p205
sVRemarkName
p206
g56
sVIsOwner
p207
I0
sVSex
p208
I2
sVStarFriend
p209
I0
sVHideInputBarFlag
p210
I0
sVChatRoomId
p211
I0
sVEncryChatRoomId
p212
g56
sVAttrStatus
p213
I102655
sVStatues
p214
I0
stp215
Rp216
I1
batp217
Rp218
I1
bsS'chatroomList'
p219
g34
(g35
g36
(lp220
tp221
Rp222
I1
bsS'nickName'
p223
VToshiba_Camera_output
p224
sS'mpList'
p225
g34
(g35
g36
(lp226
g34
(citchat.storage.templates
MassivePlatform
p227
g39
(dp228
VUserName
p229
V@ba2d81534de95fbbaee38c8fd647a33b
p230
sVCity
p231
V\u5e7f\u5dde
p232
sVSnsFlag
p233
I0
sVDisplayName
p234
g56
sVUniFriend
p235
I0
sVMemberCount
p236
I0
sVOwnerUin
p237
I0
sVMemberList
p238
g52
sVAlias
p239
g56
sVPYQuanPin
p240
Vweixinyundong
p241
sVSignature
p242
V\u4e5f\u8bb8\u4f60\u65e9\u5df2\u4e60\u60ef\u4e00\u4e2a\u4eba\u8fd0\u52a8\u7684\u5b64\u72ec\uff0c\u5374\u4e5f\u5076\u5c14\u6e34\u671b\u5f97\u5230\u8d5e\u8d4f\u3002\u52a0\u5165\u5fae\u4fe1\u8fd0\u52a8\uff0c\u548c\u670b\u53cb\u4e00\u8d77\u70b9\u8d5e\u4e92\u52a8\u3001\u62a2\u5360\u5c01\u9762\uff0c\u5206\u4eab\u8fd0\u52a8\u7684\u5feb\u4e50\u3002
p243
sVRemarkPYInitial
p244
g56
sVContactFlag
p245
I3
sVUin
p246
I0
sVNickName
p247
V\u5fae\u4fe1\u8fd0\u52a8
p248
sVAppAccountFlag
p249
I0
sVVerifyFlag
p250
I24
sVRemarkPYQuanPin
p251
g56
sVHeadImgUrl
p252
V/cgi-bin/mmwebwx-bin/webwxgeticon?seq=639164175&username=@ba2d81534de95fbbaee38c8fd647a33b&skey=@crypt_5fc16cfa_c8941a384e52ba9d6c9cc7020b0990ed
p253
sVKeyWord
p254
Vgh_
p255
sVProvince
p256
V\u5e7f\u4e1c
p257
sVPYInitial
p258
VWXYD
p259
sVRemarkName
p260
g56
sVIsOwner
p261
I0
sVSex
p262
I0
sVStarFriend
p263
I0
sVHideInputBarFlag
p264
I0
sVChatRoomId
p265
I0
sVEncryChatRoomId
p266
g56
sVAttrStatus
p267
I0
sVStatues
p268
I0
stp269
Rp270
I1
bag34
(g227
g39
(dp271
VUserName
p272
V@38f79551e7b73e9d31e8f42e87df1143
p273
sVCity
p274
V\u5f90\u6c47
p275
sVSnsFlag
p276
I0
sVDisplayName
p277
g56
sVUniFriend
p278
I0
sVMemberCount
p279
I0
sVOwnerUin
p280
I0
sVMemberList
p281
g52
sVAlias
p282
g56
sVPYQuanPin
p283
Vgaizhanghaoyizhuxiao
p284
sVSignature
p285
g56
sVRemarkPYInitial
p286
g56
sVContactFlag
p287
I3
sVUin
p288
I0
sVNickName
p289
V\u8be5\u5e10\u53f7\u5df2\u6ce8\u9500
p290
sVAppAccountFlag
p291
I0
sVVerifyFlag
p292
I8
sVRemarkPYQuanPin
p293
g56
sVHeadImgUrl
p294
V/cgi-bin/mmwebwx-bin/webwxgeticon?seq=535258&username=@38f79551e7b73e9d31e8f42e87df1143&skey=@crypt_5fc16cfa_c8941a384e52ba9d6c9cc7020b0990ed
p295
sVKeyWord
p296
Vgh_
p297
sVProvince
p298
V\u4e0a\u6d77
p299
sVPYInitial
p300
VGZHYZX
p301
sVRemarkName
p302
g56
sVIsOwner
p303
I0
sVSex
p304
I0
sVStarFriend
p305
I0
sVHideInputBarFlag
p306
I0
sVChatRoomId
p307
I0
sVEncryChatRoomId
p308
g56
sVAttrStatus
p309
I152
sVStatues
p310
I0
stp311
Rp312
I1
bag34
(g227
g39
(dp313
VUserName
p314
V@f44907c98cd1536b580a52905bbad569
p315
sVCity
p316
g56
sVSnsFlag
p317
I0
sVDisplayName
p318
g56
sVUniFriend
p319
I0
sVMemberCount
p320
I0
sVOwnerUin
p321
I0
sVMemberList
p322
g52
sVAlias
p323
g56
sVPYQuanPin
p324
Vweixinzhifu
p325
sVSignature
p326
V\u5e2e\u52a9\u89e3\u51b3\u5fae\u4fe1\u652f\u4ed8\u4e2d\u9047\u5230\u7684\u56f0\u96be\uff0c\u6536\u96c6\u5173\u4e8e\u5fae\u4fe1\u652f\u4ed8\u7684\u5efa\u8bae\u53cd\u9988\u3002
p327
sVRemarkPYInitial
p328
g56
sVContactFlag
p329
I3
sVUin
p330
I0
sVNickName
p331
V\u5fae\u4fe1\u652f\u4ed8
p332
sVAppAccountFlag
p333
I0
sVVerifyFlag
p334
I24
sVRemarkPYQuanPin
p335
g56
sVHeadImgUrl
p336
V/cgi-bin/mmwebwx-bin/webwxgeticon?seq=620635410&username=@f44907c98cd1536b580a52905bbad569&skey=@crypt_5fc16cfa_c8941a384e52ba9d6c9cc7020b0990ed
p337
sVKeyWord
p338
Vgh_
p339
sVProvince
p340
V\u5e7f\u4e1c
p341
sVPYInitial
p342
VWXZF
p343
sVRemarkName
p344
g56
sVIsOwner
p345
I0
sVSex
p346
I0
sVStarFriend
p347
I0
sVHideInputBarFlag
p348
I0
sVChatRoomId
p349
I0
sVEncryChatRoomId
p350
g56
sVAttrStatus
p351
I0
sVStatues
p352
I0
stp353
Rp354
I1
bag34
(g227
g39
(dp355
VUserName
p356
V@e0c2eab8d105f23c55de5f2d175f8ad7
p357
sVCity
p358
V\u9759\u5b89
p359
sVSnsFlag
p360
I0
sVDisplayName
p361
g56
sVUniFriend
p362
I0
sVMemberCount
p363
I0
sVOwnerUin
p364
I0
sVMemberList
p365
g52
sVAlias
p366
g56
sVPYQuanPin
p367
Vdongfangyouxianzixun
p368
sVSignature
p369
V\u4f5c\u4e3a\u5149\u89c6\u901a\u7528\u6237\u4e0e\u4e1c\u65b9\u6709\u7ebf\u7f51\u7edc\u6709\u7ebf\u516c\u53f8\u7684\u8054\u7cfb\u7ebd\u5e26\uff0c\u4e0e\u7528\u6237\u8fdb\u884c\u4e92\u52a8\u4ea4\u6d41\uff0c\u5e76\u5411\u5149\u89c6\u901a\u7528\u6237\u63d0\u4f9b\u6700\u65b0\u7684\u4ea7\u54c1\u52a8\u6001\u3001\u4f18\u60e0\u4fe1\u606f\u3001\u670d\u52a1\u7b49\u4fe1\u606f\u3002
p370
sVRemarkPYInitial
p371
g56
sVContactFlag
p372
I3
sVUin
p373
I0
sVNickName
p374
V\u4e1c\u65b9\u6709\u7ebf\u8d44\u8baf
p375
sVAppAccountFlag
p376
I0
sVVerifyFlag
p377
I24
sVRemarkPYQuanPin
p378
g56
sVHeadImgUrl
p379
V/cgi-bin/mmwebwx-bin/webwxgeticon?seq=621740193&username=@e0c2eab8d105f23c55de5f2d175f8ad7&skey=@crypt_5fc16cfa_c8941a384e52ba9d6c9cc7020b0990ed
p380
sVKeyWord
p381
Vgh_
p382
sVProvince
p383
V\u4e0a\u6d77
p384
sVPYInitial
p385
VDFYXZX
p386
sVRemarkName
p387
g56
sVIsOwner
p388
I0
sVSex
p389
I0
sVStarFriend
p390
I0
sVHideInputBarFlag
p391
I0
sVChatRoomId
p392
I0
sVEncryChatRoomId
p393
g56
sVAttrStatus
p394
I0
sVStatues
p395
I0
stp396
Rp397
I1
bag34
(g227
g39
(dp398
VUserName
p399
V@7852ca74a364f0c3bb553c6406046a6a
p400
sVCity
p401
V\u897f\u57ce
p402
sVSnsFlag
p403
I0
sVDisplayName
p404
g56
sVUniFriend
p405
I0
sVMemberCount
p406
I0
sVOwnerUin
p407
I0
sVMemberList
p408
g52
sVAlias
p409
g56
sVPYQuanPin
p410
VCHCdianyingpindao
p411
sVSignature
p412
VCHC(China Home Cinema)\u7cfb\u5217\u7535\u5f71\u9891\u9053\u5305\u542b\u201cCHC\u5bb6\u5ead\u5f71\u9662\u201d\u3001\u201cCHC\u52a8\u4f5c\u7535\u5f71\u201d\u548c\u201cCHC\u9ad8\u6e05\u7535\u5f71\u201d\u4e09\u4e2a\u4ed8\u8d39\u7535\u89c6\u9891\u9053\uff0c\u6d77\u91cf\u5f71\u7247\u8f6e\u756a\u64ad\u6620\u3002\u8ba2\u8d2d\u8be6\u60c5\u8bf7\u4e0e\u5f53\u5730\u6709\u7ebf\u7535\u89c6\u7f51\u7edc\u516c\u53f8\u8054\u7cfb\uff0c\u66f4\u591a\u7cbe\u5f69\u5185\u5bb9\u8bf7\u8bbf\u95eewww.chc2004.cn\u3002
p413
sVRemarkPYInitial
p414
g56
sVContactFlag
p415
I1
sVUin
p416
I0
sVNickName
p417
VCHC\u7535\u5f71\u9891\u9053
p418
sVAppAccountFlag
p419
I0
sVVerifyFlag
p420
I24
sVRemarkPYQuanPin
p421
g56
sVHeadImgUrl
p422
V/cgi-bin/mmwebwx-bin/webwxgeticon?seq=646304935&username=@7852ca74a364f0c3bb553c6406046a6a&skey=@crypt_5fc16cfa_c8941a384e52ba9d6c9cc7020b0990ed
p423
sVKeyWord
p424
Vgh_
p425
sVProvince
p426
V\u5317\u4eac
p427
sVPYInitial
p428
VCHCDYPD
p429
sVRemarkName
p430
g56
sVIsOwner
p431
I0
sVSex
p432
I0
sVStarFriend
p433
I0
sVHideInputBarFlag
p434
I0
sVChatRoomId
p435
I0
sVEncryChatRoomId
p436
g56
sVAttrStatus
p437
I0
sVStatues
p438
I0
stp439
Rp440
I1
bag34
(g227
g39
(dp441
VUserName
p442
V@77773ea3fc8108a819181e437dfbe633
p443
sVCity
p444
V\u6df1\u5733
p445
sVSnsFlag
p446
I0
sVDisplayName
p447
g56
sVUniFriend
p448
I0
sVMemberCount
p449
I0
sVOwnerUin
p450
I0
sVMemberList
p451
g52
sVAlias
p452
g56
sVPYQuanPin
p453
VQQanquanzhongxin
p454
sVSignature
p455
VQQ\u5b89\u5168\u4e2d\u5fc3\u5b98\u65b9\u5fae\u4fe1\u3002\u52aa\u529b\u4fdd\u62a4\u60a8\u7684QQ\u5b89\u5168\uff0c\u5173\u952e\u65f6\u523b\u53ca\u65f6\u63d0\u9192\uff0c\u968f\u65f6\u638c\u63e1\u5e10\u53f7\u5b89\u5168\u52a8\u6001\u3002
p456
sVRemarkPYInitial
p457
g56
sVContactFlag
p458
I1
sVUin
p459
I0
sVNickName
p460
VQQ\u5b89\u5168\u4e2d\u5fc3
p461
sVAppAccountFlag
p462
I0
sVVerifyFlag
p463
I24
sVRemarkPYQuanPin
p464
g56
sVHeadImgUrl
p465
V/cgi-bin/mmwebwx-bin/webwxgeticon?seq=624560120&username=@77773ea3fc8108a819181e437dfbe633&skey=@crypt_5fc16cfa_c8941a384e52ba9d6c9cc7020b0990ed
p466
sVKeyWord
p467
Vqqs
p468
sVProvince
p469
V\u5e7f\u4e1c
p470
sVPYInitial
p471
VQQAQZX
p472
sVRemarkName
p473
g56
sVIsOwner
p474
I0
sVSex
p475
I0
sVStarFriend
p476
I0
sVHideInputBarFlag
p477
I0
sVChatRoomId
p478
I0
sVEncryChatRoomId
p479
g56
sVAttrStatus
p480
I0
sVStatues
p481
I0
stp482
Rp483
I1
batp484
Rp485
I1
bssS'loginInfo'
p486
(dp487
S'SyncKey'
p488
(dp489
VCount
p490
I4
sVList
p491
(lp492
(dp493
VVal
p494
I678330179
sVKey
p495
I1
sa(dp496
VVal
p497
I678330312
sVKey
p498
I2
sa(dp499
VVal
p500
I678330311
sVKey
p501
I3
sa(dp502
VVal
p503
I1539147722
sVKey
p504
I1000
sassS'syncUrl'
p505
S'https://webpush.wx.qq.com/cgi-bin/mmwebwx-bin'
p506
sS'skey'
p507
V@crypt_5fc16cfa_c8941a384e52ba9d6c9cc7020b0990ed
p508
sS'wxuin'
p509
V1425297161
p510
sS'synckey'
p511
S'1_678330179|2_678330312|3_678330311|1000_1539147722'
p512
sS'url'
p513
Vhttps://wx.qq.com/cgi-bin/mmwebwx-bin
p514
sS'pass_ticket'
p515
Vtw2s4sDRaHOrjVzp7Tz5PWgl7UgJr1NEtQLrTFToe%2FbbWQwqJORgFhSVNsuCwwNQ
p516
sS'deviceid'
p517
S'e847783852055558'
p518
sS'wxsid'
p519
VOUkD88bQNAY9fxko
p520
sS'InviteStartCount'
p521
I40
sS'fileUrl'
p522
S'https://file.wx.qq.com/cgi-bin/mmwebwx-bin'
p523
sS'BaseRequest'
p524
(dp525
g57
g510
sS'Skey'
p526
g508
sS'DeviceID'
p527
g516
sS'Sid'
p528
g520
ssS'User'
p529
g34
(g38
g39
(dp530
g41
g31
sg43
g46
sg45
g46
sg47
I0
sg49
g52
sg53
g56
sg55
g56
sg84
I1
sg58
I0
sg59
I0
sg60
g46
sg62
g46
sg63
g56
sg64
g56
sg66
I0
sg68
I0
sg69
I1
sg70
g46
sg71
I0
sg74
I0
sg72
I49
sg73
I0
sg48
I0
sg75
g46
sg76
V\u795e\u5947\u7684\u5927\u81ea\u7136
p531
sg78
I0
sg79
g224
sg81
g56
sg82
V/cgi-bin/mmwebwx-bin/webwxgeticon?seq=1220427977&username=@567c39184bdbec5c87418dc3006f94f44e60f5b60b43068c430ad74786aeff1f&skey=@crypt_5fc16cfa_c8941a384e52ba9d6c9cc7020b0990ed
p532
sg57
I1425297161
sg85
I0
sg86
I0
stp533
Rp534
I1
bss.